target datalayout = "e-m:e-p270:32:32-p271:32:32-p272:64:64-i64:64-i128:128-f80:128-n8:16:32:64-S128"
target triple = "x86_64-pc-linux-gnu"

%struct.SlruCtlData = type { ptr, i16, i8, i32, ptr, [64 x i8] }
%struct.pg_atomic_uint64 = type { i64 }
%struct.pg_atomic_uint32 = type { i32 }
%struct.LWLock = type { i16, %struct.pg_atomic_uint32, %struct.proclist_head }
%struct.proclist_head = type { i32, i32 }
%struct.SlruSharedData = type { i32, ptr, ptr, ptr, ptr, ptr, ptr, ptr, ptr, ptr, i32, %struct.pg_atomic_uint64, i32 }
%union.LWLockPadded = type { %struct.LWLock, [112 x i8] }
%struct.xl_clog_truncate = type { i64, i32, i32 }
%struct.XLogReaderState = type { %struct.XLogReaderRoutine, i64, ptr, i64, i64, i64, i64, i64, i64, i64, i64, ptr, ptr, i64, i8, ptr, ptr, ptr, ptr, ptr, i32, %struct.WALSegmentContext, %struct.WALOpenSegment, i32, i64, i32, i64, i32, i64, i32, ptr, i32, ptr, i8, i8 }
%struct.XLogReaderRoutine = type { ptr, ptr, ptr }
%struct.WALSegmentContext = type { [1024 x i8], i32 }
%struct.WALOpenSegment = type { i32, i64, i32 }
%struct.DecodedXLogRecord = type { i64, i8, ptr, i64, i64, %struct.XLogRecord, i16, i32, ptr, i32, i32, [0 x %struct.DecodedBkpBlock] }
%struct.XLogRecord = type { i32, i32, i64, i8, i8, i32 }
%struct.DecodedBkpBlock = type { i8, %struct.RelFileLocator, i32, i32, i32, i8, i8, i8, ptr, i16, i16, i16, i8, i8, ptr, i16, i16 }
%struct.RelFileLocator = type { i32, i32, i32 }

@XactCtlData = internal global %struct.SlruCtlData zeroinitializer, align 8
@.str.4 = private unnamed_addr constant [30 x i8] c"clog_redo: unknown op code %u\00", align 1
@.str.5 = private unnamed_addr constant [7 x i8] c"clog.c\00", align 1
@__func__.clog_redo = private unnamed_addr constant [10 x i8] c"clog_redo\00", align 1

; Function Attrs: nounwind uwtable
define internal void @WriteZeroPageXlogRec(i64 noundef %0) #0 {
  %2 = alloca i64, align 8
  store i64 %0, ptr %2, align 8
  call void @XLogBeginInsert()
  call void @XLogRegisterData(ptr noundef %2, i32 noundef 8)
  %3 = call i64 @XLogInsert(i8 noundef zeroext 3, i8 noundef zeroext 0)
  ret void
}

; Function Attrs: nounwind uwtable
define internal i32 @ZeroCLOGPage(i64 noundef %0, i1 noundef zeroext %1) #0 {
  %3 = alloca i64, align 8
  %4 = alloca i8, align 1
  %5 = alloca i32, align 4
  store i64 %0, ptr %3, align 8
  %6 = zext i1 %1 to i8
  store i8 %6, ptr %4, align 1
  call void @llvm.lifetime.start.p0(i64 4, ptr %5) #8
  %7 = load i64, ptr %3, align 8
  %8 = call i32 @SimpleLruZeroPage(ptr noundef @XactCtlData, i64 noundef %7)
  store i32 %8, ptr %5, align 4
  %9 = load i8, ptr %4, align 1, !range !6, !noundef !7
  %10 = trunc i8 %9 to i1
  br i1 %10, label %11, label %13

11:                                               ; preds = %2
  %12 = load i64, ptr %3, align 8
  call void @WriteZeroPageXlogRec(i64 noundef %12)
  br label %13

13:                                               ; preds = %11, %2
  %14 = load i32, ptr %5, align 4
  call void @llvm.lifetime.end.p0(i64 4, ptr %5) #8
  ret i32 %14
}

; Function Attrs: inlinehint nounwind uwtable
define internal ptr @SimpleLruGetBankLock(ptr noundef %0, i64 noundef %1) #2 {
  %3 = alloca ptr, align 8
  %4 = alloca i64, align 8
  %5 = alloca i32, align 4
  store ptr %0, ptr %3, align 8
  store i64 %1, ptr %4, align 8
  call void @llvm.lifetime.start.p0(i64 4, ptr %5) #8
  %6 = load i64, ptr %4, align 8
  %7 = load ptr, ptr %3, align 8
  %8 = getelementptr inbounds nuw %struct.SlruCtlData, ptr %7, i32 0, i32 1
  %9 = load i16, ptr %8, align 8
  %10 = zext i16 %9 to i64
  %11 = srem i64 %6, %10
  %12 = trunc i64 %11 to i32
  store i32 %12, ptr %5, align 4
  %13 = load ptr, ptr %3, align 8
  %14 = getelementptr inbounds nuw %struct.SlruCtlData, ptr %13, i32 0, i32 0
  %15 = load ptr, ptr %14, align 8
  %16 = getelementptr inbounds nuw %struct.SlruSharedData, ptr %15, i32 0, i32 7
  %17 = load ptr, ptr %16, align 8
  %18 = load i32, ptr %5, align 4
  %19 = sext i32 %18 to i64
  %20 = getelementptr inbounds %union.LWLockPadded, ptr %17, i64 %19
  call void @llvm.lifetime.end.p0(i64 4, ptr %5) #8
  ret ptr %20
}

; Function Attrs: nounwind uwtable
define dso_local void @clog_redo(ptr noundef %0) #0 {
  %2 = alloca ptr, align 8
  %3 = alloca i8, align 1
  %4 = alloca i64, align 8
  %5 = alloca i32, align 4
  %6 = alloca ptr, align 8
  %7 = alloca %struct.xl_clog_truncate, align 8
  store ptr %0, ptr %2, align 8
  call void @llvm.lifetime.start.p0(i64 1, ptr %3) #8
  %8 = load ptr, ptr %2, align 8
  %9 = getelementptr inbounds nuw %struct.XLogReaderState, ptr %8, i32 0, i32 11
  %10 = load ptr, ptr %9, align 8
  %11 = getelementptr inbounds nuw %struct.DecodedXLogRecord, ptr %10, i32 0, i32 5
  %12 = getelementptr inbounds nuw %struct.XLogRecord, ptr %11, i32 0, i32 3
  %13 = load i8, ptr %12, align 8
  %14 = zext i8 %13 to i32
  %15 = and i32 %14, -16
  %16 = trunc i32 %15 to i8
  store i8 %16, ptr %3, align 1
  %17 = load i8, ptr %3, align 1
  %18 = zext i8 %17 to i32
  %19 = icmp eq i32 %18, 0
  br i1 %19, label %20, label %34

20:                                               ; preds = %1
  call void @llvm.lifetime.start.p0(i64 8, ptr %4) #8
  call void @llvm.lifetime.start.p0(i64 4, ptr %5) #8
  call void @llvm.lifetime.start.p0(i64 8, ptr %6) #8
  %21 = load ptr, ptr %2, align 8
  %22 = getelementptr inbounds nuw %struct.XLogReaderState, ptr %21, i32 0, i32 11
  %23 = load ptr, ptr %22, align 8
  %24 = getelementptr inbounds nuw %struct.DecodedXLogRecord, ptr %23, i32 0, i32 8
  %25 = load ptr, ptr %24, align 8
  call void @llvm.memcpy.p0.p0.i64(ptr align 8 %4, ptr align 1 %25, i64 8, i1 false)
  %26 = load i64, ptr %4, align 8
  %27 = call ptr @SimpleLruGetBankLock(ptr noundef @XactCtlData, i64 noundef %26)
  store ptr %27, ptr %6, align 8
  %28 = load ptr, ptr %6, align 8
  %29 = call zeroext i1 @LWLockAcquire(ptr noundef %28, i32 noundef 0)
  %30 = load i64, ptr %4, align 8
  %31 = call i32 @ZeroCLOGPage(i64 noundef %30, i1 noundef zeroext false)
  store i32 %31, ptr %5, align 4
  %32 = load i32, ptr %5, align 4
  call void @SimpleLruWritePage(ptr noundef @XactCtlData, i32 noundef %32)
  %33 = load ptr, ptr %6, align 8
  call void @LWLockRelease(ptr noundef %33)
  call void @llvm.lifetime.end.p0(i64 8, ptr %6) #8
  call void @llvm.lifetime.end.p0(i64 4, ptr %5) #8
  call void @llvm.lifetime.end.p0(i64 8, ptr %4) #8
  br label %62

34:                                               ; preds = %1
  %35 = load i8, ptr %3, align 1
  %36 = zext i8 %35 to i32
  %37 = icmp eq i32 %36, 16
  br i1 %37, label %38, label %48

38:                                               ; preds = %34
  call void @llvm.lifetime.start.p0(i64 16, ptr %7) #8
  %39 = load ptr, ptr %2, align 8
  %40 = getelementptr inbounds nuw %struct.XLogReaderState, ptr %39, i32 0, i32 11
  %41 = load ptr, ptr %40, align 8
  %42 = getelementptr inbounds nuw %struct.DecodedXLogRecord, ptr %41, i32 0, i32 8
  %43 = load ptr, ptr %42, align 8
  call void @llvm.memcpy.p0.p0.i64(ptr align 8 %7, ptr align 1 %43, i64 16, i1 false)
  %44 = getelementptr inbounds nuw %struct.xl_clog_truncate, ptr %7, i32 0, i32 1
  %45 = load i32, ptr %44, align 8
  call void @AdvanceOldestClogXid(i32 noundef %45)
  %46 = getelementptr inbounds nuw %struct.xl_clog_truncate, ptr %7, i32 0, i32 0
  %47 = load i64, ptr %46, align 8
  call void @SimpleLruTruncate(ptr noundef @XactCtlData, i64 noundef %47)
  call void @llvm.lifetime.end.p0(i64 16, ptr %7) #8
  br label %61

48:                                               ; preds = %34
  br label %49

49:                                               ; preds = %48
  br i1 true, label %50, label %52

50:                                               ; preds = %49
  %51 = call zeroext i1 @errstart_cold(i32 noundef 23, ptr noundef null) #10
  br i1 %51, label %54, label %58

52:                                               ; preds = %49
  %53 = call zeroext i1 @errstart(i32 noundef 23, ptr noundef null)
  br i1 %53, label %54, label %58

54:                                               ; preds = %52, %50
  %55 = load i8, ptr %3, align 1
  %56 = zext i8 %55 to i32
  %57 = call i32 (ptr, ...) @errmsg_internal(ptr noundef @.str.4, i32 noundef %56)
  call void @errfinish(ptr noundef @.str.5, i32 noundef 1142, ptr noundef @__func__.clog_redo)
  br label %58

58:                                               ; preds = %54, %52, %50
  unreachable

59:                                               ; No predecessors!
  br label %60

60:                                               ; preds = %59
  br label %61

61:                                               ; preds = %60, %38
  br label %62

62:                                               ; preds = %61, %20
  call void @llvm.lifetime.end.p0(i64 1, ptr %3) #8
  ret void
}