; Function Attrs: nounwind uwtable
define dso_local void @clog_redo(ptr noundef readonly captures(none) %0) local_unnamed_addr #0 {
  %2 = getelementptr inbounds nuw i8, ptr %0, i64 104
  %3 = load ptr, ptr %2, align 8
  %4 = getelementptr inbounds nuw i8, ptr %3, i64 56
  %5 = load i8, ptr %4, align 8
  %6 = and i8 %5, -16
  switch i8 %6, label %23 [
    i8 0, label %7
    i8 16, label %20
  ]

7:                                                ; preds = %1
  %8 = getelementptr inbounds nuw i8, ptr %3, i64 72
  %9 = load ptr, ptr %8, align 8
  %.0.copyload = load i64, ptr %9, align 1
  %10 = load i16, ptr getelementptr inbounds nuw (i8, ptr @XactCtlData, i64 8), align 8
  %11 = zext i16 %10 to i64
  %12 = srem i64 %.0.copyload, %11
  %13 = load ptr, ptr @XactCtlData, align 8
  %14 = getelementptr inbounds nuw i8, ptr %13, i64 56
  %15 = load ptr, ptr %14, align 8
  %16 = shl nsw i64 %12, 7
  %17 = getelementptr inbounds i8, ptr %15, i64 %16
  %18 = tail call zeroext i1 @LWLockAcquire(ptr noundef %17, i32 noundef 0) #9
  %19 = tail call i32 @SimpleLruZeroPage(ptr noundef nonnull @XactCtlData, i64 noundef %.0.copyload) #9
  tail call void @SimpleLruWritePage(ptr noundef nonnull @XactCtlData, i32 noundef %19) #9
  tail call void @LWLockRelease(ptr noundef %17) #9
  br label %27

20:                                               ; preds = %1
  %21 = getelementptr inbounds nuw i8, ptr %3, i64 72
  %22 = load ptr, ptr %21, align 8
  %.sroa.0.0.copyload = load i64, ptr %22, align 1
  %.sroa.4.0..sroa_idx = getelementptr inbounds nuw i8, ptr %22, i64 8
  %.sroa.4.0.copyload = load i32, ptr %.sroa.4.0..sroa_idx, align 1
  tail call void @AdvanceOldestClogXid(i32 noundef %.sroa.4.0.copyload) #9
  tail call void @SimpleLruTruncate(ptr noundef nonnull @XactCtlData, i64 noundef %.sroa.0.0.copyload) #9
  br label %27

23:                                               ; preds = %1
  %24 = zext i8 %6 to i32
  %25 = tail call zeroext i1 @errstart_cold(i32 noundef 23, ptr noundef null) #10
  tail call void @llvm.assume(i1 %25)
  %26 = tail call i32 (ptr, ...) @errmsg_internal(ptr noundef nonnull @.str.4, i32 noundef %24) #9
  tail call void @errfinish(ptr noundef nonnull @.str.5, i32 noundef 1142, ptr noundef nonnull @__func__.clog_redo) #9
  unreachable

27:                                               ; preds = %20, %7
  ret void
}